target datalayout = "e-m:e-p270:32:32-p271:32:32-p272:64:64-i64:64-i128:128-f80:128-n8:16:32:64-S128"
target triple = "x86_64-pc-linux-gnu"

%struct.SDL_BlitInfo = type { ptr, ptr, i32, i32, i32, i32, ptr, ptr, i32, i32, i32, i32, ptr, ptr, ptr, ptr, ptr, ptr, i32, i32, i8, i8, i8, i8 }

; Function Attrs: nounwind uwtable
define internal void @Blit1to1(ptr noundef %0) #0 {
  %2 = alloca ptr, align 8
  %3 = alloca i32, align 4
  %4 = alloca i32, align 4
  %5 = alloca ptr, align 8
  %6 = alloca ptr, align 8
  %7 = alloca ptr, align 8
  %8 = alloca i32, align 4
  %9 = alloca i32, align 4
  %10 = alloca i32, align 4
  store ptr %0, ptr %2, align 8
  call void @llvm.lifetime.start.p0(i64 4, ptr %3) #2
  call void @llvm.lifetime.start.p0(i64 4, ptr %4) #2
  call void @llvm.lifetime.start.p0(i64 8, ptr %5) #2
  call void @llvm.lifetime.start.p0(i64 8, ptr %6) #2
  call void @llvm.lifetime.start.p0(i64 8, ptr %7) #2
  call void @llvm.lifetime.start.p0(i64 4, ptr %8) #2
  call void @llvm.lifetime.start.p0(i64 4, ptr %9) #2
  %11 = load ptr, ptr %2, align 8
  %12 = getelementptr inbounds nuw %struct.SDL_BlitInfo, ptr %11, i32 0, i32 8
  %13 = load i32, ptr %12, align 8
  store i32 %13, ptr %3, align 4
  %14 = load ptr, ptr %2, align 8
  %15 = getelementptr inbounds nuw %struct.SDL_BlitInfo, ptr %14, i32 0, i32 9
  %16 = load i32, ptr %15, align 4
  store i32 %16, ptr %4, align 4
  %17 = load ptr, ptr %2, align 8
  %18 = getelementptr inbounds nuw %struct.SDL_BlitInfo, ptr %17, i32 0, i32 1
  %19 = load ptr, ptr %18, align 8
  store ptr %19, ptr %5, align 8
  %20 = load ptr, ptr %2, align 8
  %21 = getelementptr inbounds nuw %struct.SDL_BlitInfo, ptr %20, i32 0, i32 5
  %22 = load i32, ptr %21, align 4
  store i32 %22, ptr %8, align 4
  %23 = load ptr, ptr %2, align 8
  %24 = getelementptr inbounds nuw %struct.SDL_BlitInfo, ptr %23, i32 0, i32 7
  %25 = load ptr, ptr %24, align 8
  store ptr %25, ptr %7, align 8
  %26 = load ptr, ptr %2, align 8
  %27 = getelementptr inbounds nuw %struct.SDL_BlitInfo, ptr %26, i32 0, i32 11
  %28 = load i32, ptr %27, align 4
  store i32 %28, ptr %9, align 4
  %29 = load ptr, ptr %2, align 8
  %30 = getelementptr inbounds nuw %struct.SDL_BlitInfo, ptr %29, i32 0, i32 16
  %31 = load ptr, ptr %30, align 8
  store ptr %31, ptr %6, align 8
  br label %32

32:                                               ; preds = %144, %1
  %33 = load i32, ptr %4, align 4
  %34 = add nsw i32 %33, -1
  store i32 %34, ptr %4, align 4
  %35 = icmp ne i32 %33, 0
  br i1 %35, label %36, label %153

36:                                               ; preds = %32
  call void @llvm.lifetime.start.p0(i64 4, ptr %10) #2
  %37 = load i32, ptr %3, align 4
  %38 = add nsw i32 %37, 7
  %39 = sdiv i32 %38, 8
  store i32 %39, ptr %10, align 4
  %40 = load i32, ptr %3, align 4
  %41 = and i32 %40, 7
  switch i32 %41, label %144 [
    i32 0, label %42
    i32 7, label %55
    i32 6, label %67
    i32 5, label %79
    i32 4, label %91
    i32 3, label %103
    i32 2, label %115
    i32 1, label %127
  ]

42:                                               ; preds = %36
  br label %43

43:                                               ; preds = %139, %42
  %44 = load ptr, ptr %6, align 8
  %45 = load ptr, ptr %5, align 8
  %46 = load i8, ptr %45, align 1
  %47 = zext i8 %46 to i64
  %48 = getelementptr inbounds nuw i8, ptr %44, i64 %47
  %49 = load i8, ptr %48, align 1
  %50 = load ptr, ptr %7, align 8
  store i8 %49, ptr %50, align 1
  %51 = load ptr, ptr %7, align 8
  %52 = getelementptr inbounds nuw i8, ptr %51, i32 1
  store ptr %52, ptr %7, align 8
  %53 = load ptr, ptr %5, align 8
  %54 = getelementptr inbounds nuw i8, ptr %53, i32 1
  store ptr %54, ptr %5, align 8
  br label %55

55:                                               ; preds = %36, %43
  %56 = load ptr, ptr %6, align 8
  %57 = load ptr, ptr %5, align 8
  %58 = load i8, ptr %57, align 1
  %59 = zext i8 %58 to i64
  %60 = getelementptr inbounds nuw i8, ptr %56, i64 %59
  %61 = load i8, ptr %60, align 1
  %62 = load ptr, ptr %7, align 8
  store i8 %61, ptr %62, align 1
  %63 = load ptr, ptr %7, align 8
  %64 = getelementptr inbounds nuw i8, ptr %63, i32 1
  store ptr %64, ptr %7, align 8
  %65 = load ptr, ptr %5, align 8
  %66 = getelementptr inbounds nuw i8, ptr %65, i32 1
  store ptr %66, ptr %5, align 8
  br label %67

67:                                               ; preds = %36, %55
  %68 = load ptr, ptr %6, align 8
  %69 = load ptr, ptr %5, align 8
  %70 = load i8, ptr %69, align 1
  %71 = zext i8 %70 to i64
  %72 = getelementptr inbounds nuw i8, ptr %68, i64 %71
  %73 = load i8, ptr %72, align 1
  %74 = load ptr, ptr %7, align 8
  store i8 %73, ptr %74, align 1
  %75 = load ptr, ptr %7, align 8
  %76 = getelementptr inbounds nuw i8, ptr %75, i32 1
  store ptr %76, ptr %7, align 8
  %77 = load ptr, ptr %5, align 8
  %78 = getelementptr inbounds nuw i8, ptr %77, i32 1
  store ptr %78, ptr %5, align 8
  br label %79

79:                                               ; preds = %36, %67
  %80 = load ptr, ptr %6, align 8
  %81 = load ptr, ptr %5, align 8
  %82 = load i8, ptr %81, align 1
  %83 = zext i8 %82 to i64
  %84 = getelementptr inbounds nuw i8, ptr %80, i64 %83
  %85 = load i8, ptr %84, align 1
  %86 = load ptr, ptr %7, align 8
  store i8 %85, ptr %86, align 1
  %87 = load ptr, ptr %7, align 8
  %88 = getelementptr inbounds nuw i8, ptr %87, i32 1
  store ptr %88, ptr %7, align 8
  %89 = load ptr, ptr %5, align 8
  %90 = getelementptr inbounds nuw i8, ptr %89, i32 1
  store ptr %90, ptr %5, align 8
  br label %91

91:                                               ; preds = %36, %79
  %92 = load ptr, ptr %6, align 8
  %93 = load ptr, ptr %5, align 8
  %94 = load i8, ptr %93, align 1
  %95 = zext i8 %94 to i64
  %96 = getelementptr inbounds nuw i8, ptr %92, i64 %95
  %97 = load i8, ptr %96, align 1
  %98 = load ptr, ptr %7, align 8
  store i8 %97, ptr %98, align 1
  %99 = load ptr, ptr %7, align 8
  %100 = getelementptr inbounds nuw i8, ptr %99, i32 1
  store ptr %100, ptr %7, align 8
  %101 = load ptr, ptr %5, align 8
  %102 = getelementptr inbounds nuw i8, ptr %101, i32 1
  store ptr %102, ptr %5, align 8
  br label %103

103:                                              ; preds = %36, %91
  %104 = load ptr, ptr %6, align 8
  %105 = load ptr, ptr %5, align 8
  %106 = load i8, ptr %105, align 1
  %107 = zext i8 %106 to i64
  %108 = getelementptr inbounds nuw i8, ptr %104, i64 %107
  %109 = load i8, ptr %108, align 1
  %110 = load ptr, ptr %7, align 8
  store i8 %109, ptr %110, align 1
  %111 = load ptr, ptr %7, align 8
  %112 = getelementptr inbounds nuw i8, ptr %111, i32 1
  store ptr %112, ptr %7, align 8
  %113 = load ptr, ptr %5, align 8
  %114 = getelementptr inbounds nuw i8, ptr %113, i32 1
  store ptr %114, ptr %5, align 8
  br label %115

115:                                              ; preds = %36, %103
  %116 = load ptr, ptr %6, align 8
  %117 = load ptr, ptr %5, align 8
  %118 = load i8, ptr %117, align 1
  %119 = zext i8 %118 to i64
  %120 = getelementptr inbounds nuw i8, ptr %116, i64 %119
  %121 = load i8, ptr %120, align 1
  %122 = load ptr, ptr %7, align 8
  store i8 %121, ptr %122, align 1
  %123 = load ptr, ptr %7, align 8
  %124 = getelementptr inbounds nuw i8, ptr %123, i32 1
  store ptr %124, ptr %7, align 8
  %125 = load ptr, ptr %5, align 8
  %126 = getelementptr inbounds nuw i8, ptr %125, i32 1
  store ptr %126, ptr %5, align 8
  br label %127

127:                                              ; preds = %36, %115
  %128 = load ptr, ptr %6, align 8
  %129 = load ptr, ptr %5, align 8
  %130 = load i8, ptr %129, align 1
  %131 = zext i8 %130 to i64
  %132 = getelementptr inbounds nuw i8, ptr %128, i64 %131
  %133 = load i8, ptr %132, align 1
  %134 = load ptr, ptr %7, align 8
  store i8 %133, ptr %134, align 1
  %135 = load ptr, ptr %7, align 8
  %136 = getelementptr inbounds nuw i8, ptr %135, i32 1
  store ptr %136, ptr %7, align 8
  %137 = load ptr, ptr %5, align 8
  %138 = getelementptr inbounds nuw i8, ptr %137, i32 1
  store ptr %138, ptr %5, align 8
  br label %139

139:                                              ; preds = %127
  %140 = load i32, ptr %10, align 4
  %141 = add nsw i32 %140, -1
  store i32 %141, ptr %10, align 4
  %142 = icmp sgt i32 %141, 0
  br i1 %142, label %43, label %143, !llvm.loop !8

143:                                              ; preds = %139
  br label %144

144:                                              ; preds = %143, %36
  call void @llvm.lifetime.end.p0(i64 4, ptr %10) #2
  %145 = load i32, ptr %8, align 4
  %146 = load ptr, ptr %5, align 8
  %147 = sext i32 %145 to i64
  %148 = getelementptr inbounds i8, ptr %146, i64 %147
  store ptr %148, ptr %5, align 8
  %149 = load i32, ptr %9, align 4
  %150 = load ptr, ptr %7, align 8
  %151 = sext i32 %149 to i64
  %152 = getelementptr inbounds i8, ptr %150, i64 %151
  store ptr %152, ptr %7, align 8
  br label %32, !llvm.loop !9

153:                                              ; preds = %32
  call void @llvm.lifetime.end.p0(i64 4, ptr %9) #2
  call void @llvm.lifetime.end.p0(i64 4, ptr %8) #2
  call void @llvm.lifetime.end.p0(i64 8, ptr %7) #2
  call void @llvm.lifetime.end.p0(i64 8, ptr %6) #2
  call void @llvm.lifetime.end.p0(i64 8, ptr %5) #2
  call void @llvm.lifetime.end.p0(i64 4, ptr %4) #2
  call void @llvm.lifetime.end.p0(i64 4, ptr %3) #2
  ret void
}