; Function Attrs: nofree norecurse nosync nounwind memory(readwrite, inaccessiblemem: none) uwtable
define internal void @Blit1to1(ptr noundef readonly captures(none) %0) #1 {
  %2 = getelementptr inbounds nuw i8, ptr %0, i64 52
  %3 = load i32, ptr %2, align 4
  %4 = getelementptr inbounds nuw i8, ptr %0, i64 96
  %5 = load ptr, ptr %4, align 8
  %.not73 = icmp eq i32 %3, 0
  br i1 %.not73, label %._crit_edge, label %.lr.ph

.lr.ph:                                           ; preds = %1
  %6 = getelementptr inbounds nuw i8, ptr %0, i64 60
  %7 = load i32, ptr %6, align 4
  %8 = getelementptr inbounds nuw i8, ptr %0, i64 40
  %9 = load ptr, ptr %8, align 8
  %10 = getelementptr inbounds nuw i8, ptr %0, i64 28
  %11 = load i32, ptr %10, align 4
  %12 = getelementptr inbounds nuw i8, ptr %0, i64 8
  %13 = load ptr, ptr %12, align 8
  %14 = getelementptr inbounds nuw i8, ptr %0, i64 48
  %15 = load i32, ptr %14, align 8
  %16 = add nsw i32 %15, 7
  %17 = sdiv i32 %16, 8
  %18 = and i32 %15, 7
  %19 = sext i32 %11 to i64
  %20 = sext i32 %7 to i64
  br label %21

21:                                               ; preds = %.lr.ph, %81
  %.in = phi i32 [ %3, %.lr.ph ], [ %22, %81 ]
  %.05575 = phi ptr [ %13, %.lr.ph ], [ %82, %81 ]
  %.06374 = phi ptr [ %9, %.lr.ph ], [ %83, %81 ]
  %22 = add nsw i32 %.in, -1
  switch i32 %18, label %default.unreachable76 [
    i32 0, label %23
    i32 7, label %30
    i32 6, label %37
    i32 5, label %44
    i32 4, label %51
    i32 3, label %58
    i32 2, label %65
    i32 1, label %72
  ]

23:                                               ; preds = %21, %72
  %.871 = phi ptr [ %77, %72 ], [ %.06374, %21 ]
  %.8 = phi ptr [ %78, %72 ], [ %.05575, %21 ]
  %.7 = phi i32 [ %79, %72 ], [ %17, %21 ]
  %24 = load i8, ptr %.8, align 1
  %25 = zext i8 %24 to i64
  %26 = getelementptr inbounds nuw i8, ptr %5, i64 %25
  %27 = load i8, ptr %26, align 1
  store i8 %27, ptr %.871, align 1
  %28 = getelementptr inbounds nuw i8, ptr %.871, i64 1
  %29 = getelementptr inbounds nuw i8, ptr %.8, i64 1
  br label %30

30:                                               ; preds = %23, %21
  %.164 = phi ptr [ %28, %23 ], [ %.06374, %21 ]
  %.156 = phi ptr [ %29, %23 ], [ %.05575, %21 ]
  %.0 = phi i32 [ %.7, %23 ], [ %17, %21 ]
  %31 = load i8, ptr %.156, align 1
  %32 = zext i8 %31 to i64
  %33 = getelementptr inbounds nuw i8, ptr %5, i64 %32
  %34 = load i8, ptr %33, align 1
  store i8 %34, ptr %.164, align 1
  %35 = getelementptr inbounds nuw i8, ptr %.164, i64 1
  %36 = getelementptr inbounds nuw i8, ptr %.156, i64 1
  br label %37

37:                                               ; preds = %30, %21
  %.265 = phi ptr [ %35, %30 ], [ %.06374, %21 ]
  %.257 = phi ptr [ %36, %30 ], [ %.05575, %21 ]
  %.1 = phi i32 [ %.0, %30 ], [ %17, %21 ]
  %38 = load i8, ptr %.257, align 1
  %39 = zext i8 %38 to i64
  %40 = getelementptr inbounds nuw i8, ptr %5, i64 %39
  %41 = load i8, ptr %40, align 1
  store i8 %41, ptr %.265, align 1
  %42 = getelementptr inbounds nuw i8, ptr %.265, i64 1
  %43 = getelementptr inbounds nuw i8, ptr %.257, i64 1
  br label %44

44:                                               ; preds = %37, %21
  %.366 = phi ptr [ %42, %37 ], [ %.06374, %21 ]
  %.358 = phi ptr [ %43, %37 ], [ %.05575, %21 ]
  %.2 = phi i32 [ %.1, %37 ], [ %17, %21 ]
  %45 = load i8, ptr %.358, align 1
  %46 = zext i8 %45 to i64
  %47 = getelementptr inbounds nuw i8, ptr %5, i64 %46
  %48 = load i8, ptr %47, align 1
  store i8 %48, ptr %.366, align 1
  %49 = getelementptr inbounds nuw i8, ptr %.366, i64 1
  %50 = getelementptr inbounds nuw i8, ptr %.358, i64 1
  br label %51

51:                                               ; preds = %44, %21
  %.467 = phi ptr [ %49, %44 ], [ %.06374, %21 ]
  %.459 = phi ptr [ %50, %44 ], [ %.05575, %21 ]
  %.3 = phi i32 [ %.2, %44 ], [ %17, %21 ]
  %52 = load i8, ptr %.459, align 1
  %53 = zext i8 %52 to i64
  %54 = getelementptr inbounds nuw i8, ptr %5, i64 %53
  %55 = load i8, ptr %54, align 1
  store i8 %55, ptr %.467, align 1
  %56 = getelementptr inbounds nuw i8, ptr %.467, i64 1
  %57 = getelementptr inbounds nuw i8, ptr %.459, i64 1
  br label %58

58:                                               ; preds = %51, %21
  %.568 = phi ptr [ %56, %51 ], [ %.06374, %21 ]
  %.560 = phi ptr [ %57, %51 ], [ %.05575, %21 ]
  %.4 = phi i32 [ %.3, %51 ], [ %17, %21 ]
  %59 = load i8, ptr %.560, align 1
  %60 = zext i8 %59 to i64
  %61 = getelementptr inbounds nuw i8, ptr %5, i64 %60
  %62 = load i8, ptr %61, align 1
  store i8 %62, ptr %.568, align 1
  %63 = getelementptr inbounds nuw i8, ptr %.568, i64 1
  %64 = getelementptr inbounds nuw i8, ptr %.560, i64 1
  br label %65

65:                                               ; preds = %58, %21
  %.669 = phi ptr [ %63, %58 ], [ %.06374, %21 ]
  %.661 = phi ptr [ %64, %58 ], [ %.05575, %21 ]
  %.5 = phi i32 [ %.4, %58 ], [ %17, %21 ]
  %66 = load i8, ptr %.661, align 1
  %67 = zext i8 %66 to i64
  %68 = getelementptr inbounds nuw i8, ptr %5, i64 %67
  %69 = load i8, ptr %68, align 1
  store i8 %69, ptr %.669, align 1
  %70 = getelementptr inbounds nuw i8, ptr %.669, i64 1
  %71 = getelementptr inbounds nuw i8, ptr %.661, i64 1
  br label %72

72:                                               ; preds = %65, %21
  %.770 = phi ptr [ %.06374, %21 ], [ %70, %65 ]
  %.762 = phi ptr [ %.05575, %21 ], [ %71, %65 ]
  %.6 = phi i32 [ %17, %21 ], [ %.5, %65 ]
  %73 = load i8, ptr %.762, align 1
  %74 = zext i8 %73 to i64
  %75 = getelementptr inbounds nuw i8, ptr %5, i64 %74
  %76 = load i8, ptr %75, align 1
  store i8 %76, ptr %.770, align 1
  %77 = getelementptr inbounds nuw i8, ptr %.770, i64 1
  %78 = getelementptr inbounds nuw i8, ptr %.762, i64 1
  %79 = add nsw i32 %.6, -1
  %80 = icmp sgt i32 %.6, 1
  br i1 %80, label %23, label %81, !llvm.loop !8

default.unreachable76:                            ; preds = %21
  unreachable

81:                                               ; preds = %72
  %82 = getelementptr inbounds i8, ptr %78, i64 %19
  %83 = getelementptr inbounds i8, ptr %77, i64 %20
  %.not = icmp eq i32 %22, 0
  br i1 %.not, label %._crit_edge, label %21, !llvm.loop !9

._crit_edge:                                      ; preds = %81, %1
  ret void
}